; Function Attrs: nounwind uwtable
define range(i32 -1, 1) i32 @H5EA__dblk_page_unprotect(ptr noundef %0, i32 noundef %1) local_unnamed_addr #0 {
  %3 = getelementptr inbounds i8, ptr %0, i64 256
  %4 = load ptr, ptr %3, align 8
  %5 = getelementptr inbounds i8, ptr %4, i64 384
  %6 = load ptr, ptr %5, align 8
  %7 = getelementptr inbounds i8, ptr %0, i64 264
  %8 = load i64, ptr %7, align 8
  %9 = tail call i32 @H5AC_unprotect(ptr noundef %6, ptr noundef nonnull @H5AC_EARRAY_DBLK_PAGE, i64 noundef %8, ptr noundef %0, i32 noundef %1) #2
  %10 = icmp slt i32 %9, 0
  br i1 %10, label %11, label %16

11:                                               ; preds = %2
  %12 = load i64, ptr @H5E_EARRAY_g, align 8
  %13 = load i64, ptr @H5E_CANTUNPROTECT_g, align 8
  %14 = load i64, ptr %7, align 8
  %15 = tail call i32 (ptr, ptr, i32, i64, i64, ptr, ...) @H5E_printf_stack(ptr noundef nonnull @.str, ptr noundef nonnull @__func__.H5EA__dblk_page_unprotect, i32 noundef 273, i64 noundef %12, i64 noundef %13, ptr noundef nonnull @.str.10, i64 noundef %14) #2
  br label %16

16:                                               ; preds = %2, %11
  %.0 = phi i32 [ -1, %11 ], [ 0, %2 ]
  ret i32 %.0
}